target datalayout = "e-m:e-p270:32:32-p271:32:32-p272:64:64-i64:64-i128:128-f80:128-n8:16:32:64-S128"
target triple = "x86_64-pc-linux-gnu"

%struct.TValue = type { %union.Value, i8 }
%union.Value = type { ptr }
%struct.lua_State = type { ptr, i8, i8, i8, i8, i16, %union.StkIdRel, ptr, ptr, %union.StkIdRel, %union.StkIdRel, ptr, %union.StkIdRel, ptr, ptr, ptr, %struct.CallInfo, ptr, i64, i32, i32, i32, i32, i32, %struct.anon.3 }
%union.StkIdRel = type { ptr }
%struct.CallInfo = type { %union.StkIdRel, %union.StkIdRel, ptr, ptr, %union.anon.0, %union.anon.2, i32 }
%union.anon.0 = type { %struct.anon.1 }
%struct.anon.1 = type { ptr, i64, i64 }
%union.anon.2 = type { i32 }
%struct.anon.3 = type { i32, i32 }
%union.StackValue = type { %struct.TValue }
%struct.anon.7 = type { %union.Value, i8, i16 }

@.str = private unnamed_addr constant [2 x i8] c"?\00", align 1
@.str.1 = private unnamed_addr constant [39 x i8] c"variable '%s' got a non-closable value\00", align 1

; Function Attrs: nounwind uwtable
define internal void @checkclosemth(ptr noundef %0, ptr noundef %1) #0 {
  %3 = alloca ptr, align 8
  %4 = alloca ptr, align 8
  %5 = alloca ptr, align 8
  %6 = alloca i32, align 4
  %7 = alloca ptr, align 8
  store ptr %0, ptr %3, align 8, !tbaa !4
  store ptr %1, ptr %4, align 8, !tbaa !31
  call void @llvm.lifetime.start.p0(i64 8, ptr %5) #5
  %8 = load ptr, ptr %3, align 8, !tbaa !4
  %9 = load ptr, ptr %4, align 8, !tbaa !31
  %10 = call ptr @luaT_gettmbyobj(ptr noundef %8, ptr noundef %9, i32 noundef 24)
  store ptr %10, ptr %5, align 8, !tbaa !51
  %11 = load ptr, ptr %5, align 8, !tbaa !51
  %12 = getelementptr inbounds nuw %struct.TValue, ptr %11, i32 0, i32 1
  %13 = load i8, ptr %12, align 8, !tbaa !26
  %14 = zext i8 %13 to i32
  %15 = and i32 %14, 15
  %16 = icmp eq i32 %15, 0
  br i1 %16, label %17, label %41

17:                                               ; preds = %2
  call void @llvm.lifetime.start.p0(i64 4, ptr %6) #5
  %18 = load ptr, ptr %4, align 8, !tbaa !31
  %19 = load ptr, ptr %3, align 8, !tbaa !4
  %20 = getelementptr inbounds nuw %struct.lua_State, ptr %19, i32 0, i32 8
  %21 = load ptr, ptr %20, align 8, !tbaa !53
  %22 = getelementptr inbounds nuw %struct.CallInfo, ptr %21, i32 0, i32 0
  %23 = load ptr, ptr %22, align 8, !tbaa !25
  %24 = ptrtoint ptr %18 to i64
  %25 = ptrtoint ptr %23 to i64
  %26 = sub i64 %24, %25
  %27 = sdiv exact i64 %26, 16
  %28 = trunc i64 %27 to i32
  store i32 %28, ptr %6, align 4, !tbaa !9
  call void @llvm.lifetime.start.p0(i64 8, ptr %7) #5
  %29 = load ptr, ptr %3, align 8, !tbaa !4
  %30 = load ptr, ptr %3, align 8, !tbaa !4
  %31 = getelementptr inbounds nuw %struct.lua_State, ptr %30, i32 0, i32 8
  %32 = load ptr, ptr %31, align 8, !tbaa !53
  %33 = load i32, ptr %6, align 4, !tbaa !9
  %34 = call ptr @luaG_findlocal(ptr noundef %29, ptr noundef %32, i32 noundef %33, ptr noundef null)
  store ptr %34, ptr %7, align 8, !tbaa !54
  %35 = load ptr, ptr %7, align 8, !tbaa !54
  %36 = icmp eq ptr %35, null
  br i1 %36, label %37, label %38

37:                                               ; preds = %17
  store ptr @.str, ptr %7, align 8, !tbaa !54
  br label %38

38:                                               ; preds = %37, %17
  %39 = load ptr, ptr %3, align 8, !tbaa !4
  %40 = load ptr, ptr %7, align 8, !tbaa !54
  call void (ptr, ptr, ...) @luaG_runerror(ptr noundef %39, ptr noundef @.str.1, ptr noundef %40) #6
  unreachable

41:                                               ; preds = %2
  call void @llvm.lifetime.end.p0(i64 8, ptr %5) #5
  ret void
}

; Function Attrs: nounwind uwtable
define hidden void @luaF_newtbcupval(ptr noundef %0, ptr noundef %1) #0 {
  %3 = alloca ptr, align 8
  %4 = alloca ptr, align 8
  store ptr %0, ptr %3, align 8, !tbaa !4
  store ptr %1, ptr %4, align 8, !tbaa !31
  %5 = load ptr, ptr %4, align 8, !tbaa !31
  %6 = getelementptr inbounds nuw %struct.TValue, ptr %5, i32 0, i32 1
  %7 = load i8, ptr %6, align 8, !tbaa !25
  %8 = zext i8 %7 to i32
  %9 = icmp eq i32 %8, 1
  br i1 %9, label %17, label %10

10:                                               ; preds = %2
  %11 = load ptr, ptr %4, align 8, !tbaa !31
  %12 = getelementptr inbounds nuw %struct.TValue, ptr %11, i32 0, i32 1
  %13 = load i8, ptr %12, align 8, !tbaa !25
  %14 = zext i8 %13 to i32
  %15 = and i32 %14, 15
  %16 = icmp eq i32 %15, 0
  br i1 %16, label %17, label %18

17:                                               ; preds = %10, %2
  br label %57

18:                                               ; preds = %10
  %19 = load ptr, ptr %3, align 8, !tbaa !4
  %20 = load ptr, ptr %4, align 8, !tbaa !31
  call void @checkclosemth(ptr noundef %19, ptr noundef %20)
  br label %21

21:                                               ; preds = %33, %18
  %22 = load ptr, ptr %4, align 8, !tbaa !31
  %23 = load ptr, ptr %3, align 8, !tbaa !4
  %24 = getelementptr inbounds nuw %struct.lua_State, ptr %23, i32 0, i32 12
  %25 = load ptr, ptr %24, align 8, !tbaa !25
  %26 = ptrtoint ptr %22 to i64
  %27 = ptrtoint ptr %25 to i64
  %28 = sub i64 %26, %27
  %29 = sdiv exact i64 %28, 16
  %30 = trunc i64 %29 to i32
  %31 = zext i32 %30 to i64
  %32 = icmp ugt i64 %31, 65535
  br i1 %32, label %33, label %42

33:                                               ; preds = %21
  %34 = load ptr, ptr %3, align 8, !tbaa !4
  %35 = getelementptr inbounds nuw %struct.lua_State, ptr %34, i32 0, i32 12
  %36 = load ptr, ptr %35, align 8, !tbaa !25
  %37 = getelementptr inbounds nuw %union.StackValue, ptr %36, i64 65535
  store ptr %37, ptr %35, align 8, !tbaa !25
  %38 = load ptr, ptr %3, align 8, !tbaa !4
  %39 = getelementptr inbounds nuw %struct.lua_State, ptr %38, i32 0, i32 12
  %40 = load ptr, ptr %39, align 8, !tbaa !25
  %41 = getelementptr inbounds nuw %struct.anon.7, ptr %40, i32 0, i32 2
  store i16 0, ptr %41, align 2, !tbaa !25
  br label %21

42:                                               ; preds = %21
  %43 = load ptr, ptr %4, align 8, !tbaa !31
  %44 = load ptr, ptr %3, align 8, !tbaa !4
  %45 = getelementptr inbounds nuw %struct.lua_State, ptr %44, i32 0, i32 12
  %46 = load ptr, ptr %45, align 8, !tbaa !25
  %47 = ptrtoint ptr %43 to i64
  %48 = ptrtoint ptr %46 to i64
  %49 = sub i64 %47, %48
  %50 = sdiv exact i64 %49, 16
  %51 = trunc i64 %50 to i16
  %52 = load ptr, ptr %4, align 8, !tbaa !31
  %53 = getelementptr inbounds nuw %struct.anon.7, ptr %52, i32 0, i32 2
  store i16 %51, ptr %53, align 2, !tbaa !25
  %54 = load ptr, ptr %4, align 8, !tbaa !31
  %55 = load ptr, ptr %3, align 8, !tbaa !4
  %56 = getelementptr inbounds nuw %struct.lua_State, ptr %55, i32 0, i32 12
  store ptr %54, ptr %56, align 8, !tbaa !25
  br label %57

57:                                               ; preds = %42, %17
  ret void
}