; Function Attrs: nounwind uwtable
define hidden void @luaF_newtbcupval(ptr noundef %0, ptr noundef %1) local_unnamed_addr #0 {
  %3 = getelementptr inbounds nuw i8, ptr %1, i64 8
  %4 = load i8, ptr %3, align 8, !tbaa !16
  %5 = icmp eq i8 %4, 1
  %6 = and i8 %4, 15
  %7 = icmp eq i8 %6, 0
  %or.cond = or i1 %5, %7
  br i1 %or.cond, label %41, label %8

8:                                                ; preds = %2
  %9 = tail call ptr @luaT_gettmbyobj(ptr noundef %0, ptr noundef nonnull %1, i32 noundef 24) #7
  %10 = getelementptr inbounds nuw i8, ptr %9, i64 8
  %11 = load i8, ptr %10, align 8, !tbaa !17
  %12 = and i8 %11, 15
  %13 = icmp eq i8 %12, 0
  br i1 %13, label %20, label %checkclosemth.exit.preheader

checkclosemth.exit.preheader:                     ; preds = %8
  %14 = getelementptr inbounds nuw i8, ptr %0, i64 64
  %15 = ptrtoint ptr %1 to i64
  %16 = load ptr, ptr %14, align 8, !tbaa !16
  %17 = ptrtoint ptr %16 to i64
  %18 = sub i64 %15, %17
  %19 = and i64 %18, 68718428160
  %.not15 = icmp eq i64 %19, 0
  br i1 %.not15, label %checkclosemth.exit._crit_edge, label %checkclosemth.exit

20:                                               ; preds = %8
  %21 = getelementptr inbounds nuw i8, ptr %0, i64 32
  %22 = load ptr, ptr %21, align 8, !tbaa !40
  %23 = load ptr, ptr %22, align 8, !tbaa !16
  %24 = ptrtoint ptr %1 to i64
  %25 = ptrtoint ptr %23 to i64
  %26 = sub i64 %24, %25
  %27 = lshr exact i64 %26, 4
  %28 = trunc i64 %27 to i32
  %29 = tail call ptr @luaG_findlocal(ptr noundef %0, ptr noundef nonnull %22, i32 noundef %28, ptr noundef null) #7
  %30 = icmp eq ptr %29, null
  %spec.store.select.i = select i1 %30, ptr @.str, ptr %29
  tail call void (ptr, ptr, ...) @luaG_runerror(ptr noundef %0, ptr noundef nonnull @.str.1, ptr noundef nonnull %spec.store.select.i) #8
  unreachable

checkclosemth.exit:                               ; preds = %checkclosemth.exit.preheader, %checkclosemth.exit
  %31 = phi ptr [ %34, %checkclosemth.exit ], [ %16, %checkclosemth.exit.preheader ]
  %32 = getelementptr inbounds nuw i8, ptr %31, i64 1048560
  store ptr %32, ptr %14, align 8, !tbaa !16
  %33 = getelementptr inbounds nuw i8, ptr %31, i64 1048570
  store i16 0, ptr %33, align 2, !tbaa !16
  %34 = load ptr, ptr %14, align 8, !tbaa !16
  %35 = ptrtoint ptr %34 to i64
  %36 = sub i64 %15, %35
  %37 = and i64 %36, 68718428160
  %.not = icmp eq i64 %37, 0
  br i1 %.not, label %checkclosemth.exit._crit_edge, label %checkclosemth.exit

checkclosemth.exit._crit_edge:                    ; preds = %checkclosemth.exit, %checkclosemth.exit.preheader
  %.lcssa = phi i64 [ %18, %checkclosemth.exit.preheader ], [ %36, %checkclosemth.exit ]
  %38 = lshr exact i64 %.lcssa, 4
  %39 = trunc i64 %38 to i16
  %40 = getelementptr inbounds nuw i8, ptr %1, i64 10
  store i16 %39, ptr %40, align 2, !tbaa !16
  store ptr %1, ptr %14, align 8, !tbaa !16
  br label %41

41:                                               ; preds = %2, %checkclosemth.exit._crit_edge
  ret void
}